; Function Attrs: mustprogress uwtable
define void @_ZN6google8protobuf10BytesValue8CopyFromERKS1_(ptr noundef nonnull align 8 dereferenceable(32) %this, ptr noundef nonnull readonly align 8 dereferenceable(32) %from) local_unnamed_addr #3 align 2 {
entry:
  %cmp = icmp eq ptr %from, %this
  br i1 %cmp, label %return, label %if.end

if.end:                                           ; preds = %entry
  %0 = getelementptr inbounds i8, ptr %this, i64 16
  tail call void @_ZN6google8protobuf8internal14ArenaStringPtr12ClearToEmptyEv(ptr noundef nonnull align 8 dereferenceable(8) %0)
  %_internal_metadata_.i = getelementptr inbounds i8, ptr %this, i64 8
  %1 = load i64, ptr %_internal_metadata_.i, align 8
  %and.i.i = and i64 %1, 1
  %tobool.i.not.i = icmp eq i64 %and.i.i, 0
  br i1 %tobool.i.not.i, label %_ZN6google8protobuf10BytesValue5ClearEv.exit, label %if.then.i.i

if.then.i.i:                                      ; preds = %if.end
  tail call void @_ZN6google8protobuf8internal16InternalMetadata7DoClearINS0_15UnknownFieldSetEEEvv(ptr noundef nonnull align 8 dereferenceable(8) %_internal_metadata_.i)
  br label %_ZN6google8protobuf10BytesValue5ClearEv.exit

_ZN6google8protobuf10BytesValue5ClearEv.exit:     ; preds = %if.end, %if.then.i.i
  %2 = getelementptr inbounds i8, ptr %from, i64 16
  %3 = load ptr, ptr %2, align 8
  %4 = ptrtoint ptr %3 to i64
  %and.i.i.i.i = and i64 %4, -4
  %5 = inttoptr i64 %and.i.i.i.i to ptr
  %call2.i.i = tail call noundef zeroext i1 @_ZNKSt7__cxx1112basic_stringIcSt11char_traitsIcESaIcEE5emptyEv(ptr noundef nonnull align 8 dereferenceable(32) %5) #15
  br i1 %call2.i.i, label %if.end.i.i, label %if.then.i.i2

if.then.i.i2:                                     ; preds = %_ZN6google8protobuf10BytesValue5ClearEv.exit
  %6 = load ptr, ptr %2, align 8
  %7 = ptrtoint ptr %6 to i64
  %and.i.i5.i.i = and i64 %7, -4
  %8 = inttoptr i64 %and.i.i5.i.i to ptr
  %9 = load i64, ptr %_internal_metadata_.i, align 8
  %and.i.i.i.i.i = and i64 %9, 1
  %tobool.i.i.not.i.i.i = icmp eq i64 %and.i.i.i.i.i, 0
  br i1 %tobool.i.i.not.i.i.i, label %if.else.i.i.i.i, label %if.then.i.i6.i.i

if.then.i.i6.i.i:                                 ; preds = %if.then.i.i2
  %and.i.i7.i.i = and i64 %9, -2
  %10 = inttoptr i64 %and.i.i7.i.i to ptr
  %11 = load ptr, ptr %10, align 8
  br label %_ZNK6google8protobuf11MessageLite8GetArenaEv.exit.i.i

if.else.i.i.i.i:                                  ; preds = %if.then.i.i2
  %12 = inttoptr i64 %9 to ptr
  br label %_ZNK6google8protobuf11MessageLite8GetArenaEv.exit.i.i

_ZNK6google8protobuf11MessageLite8GetArenaEv.exit.i.i: ; preds = %if.else.i.i.i.i, %if.then.i.i6.i.i
  %retval.i.0.i.i.i = phi ptr [ %11, %if.then.i.i6.i.i ], [ %12, %if.else.i.i.i.i ]
  tail call void @_ZN6google8protobuf8internal14ArenaStringPtr3SetIJEEEvRKNSt7__cxx1112basic_stringIcSt11char_traitsIcESaIcEEEPNS0_5ArenaE(ptr noundef nonnull align 8 dereferenceable(8) %0, ptr noundef nonnull align 8 dereferenceable(32) %8, ptr noundef %retval.i.0.i.i.i)
  br label %if.end.i.i

if.end.i.i:                                       ; preds = %_ZNK6google8protobuf11MessageLite8GetArenaEv.exit.i.i, %_ZN6google8protobuf10BytesValue5ClearEv.exit
  %_internal_metadata_4.i.i = getelementptr inbounds i8, ptr %from, i64 8
  %13 = load i64, ptr %_internal_metadata_4.i.i, align 8
  %and.i11.i.i = and i64 %13, 1
  %tobool.i12.not.i.i = icmp eq i64 %and.i11.i.i, 0
  br i1 %tobool.i12.not.i.i, label %return, label %if.then.i.i.i.i

if.then.i.i.i.i:                                  ; preds = %if.end.i.i
  %and.i.i.i = and i64 %13, -2
  %14 = inttoptr i64 %and.i.i.i to ptr
  %unknown_fields.i.i.i.i = getelementptr inbounds i8, ptr %14, i64 8
  tail call void @_ZN6google8protobuf8internal16InternalMetadata11DoMergeFromINS0_15UnknownFieldSetEEEvRKT_(ptr noundef nonnull align 8 dereferenceable(8) %_internal_metadata_.i, ptr noundef nonnull align 8 dereferenceable(24) %unknown_fields.i.i.i.i)
  br label %return

return:                                           ; preds = %if.then.i.i.i.i, %if.end.i.i, %entry
  ret void
}